target datalayout = "e-m:e-p270:32:32-p271:32:32-p272:64:64-i64:64-i128:128-f80:128-n8:16:32:64-S128"
target triple = "x86_64-pc-linux-gnu"

%"struct.Luau::CodeGen::BuiltinImplResult" = type { i32, i32 }
%"struct.Luau::CodeGen::IrOp" = type { i32 }

; Function Attrs: mustprogress uwtable
define internal i64 @_ZN4Luau7CodeGenL20translateBuiltinTypeERNS0_9IrBuilderEiiiNS0_4IrOpEi(ptr noundef nonnull align 8 dereferenceable(752) %0, i32 noundef %1, i32 noundef %2, i32 noundef %3, i32 %4, i32 noundef %5) #2 {
  %7 = alloca %"struct.Luau::CodeGen::BuiltinImplResult", align 4
  %8 = alloca %"struct.Luau::CodeGen::IrOp", align 4
  %9 = alloca ptr, align 8
  %10 = alloca i32, align 4
  %11 = alloca i32, align 4
  %12 = alloca i32, align 4
  %13 = alloca i32, align 4
  %14 = alloca %"struct.Luau::CodeGen::IrOp", align 4
  %15 = alloca %"struct.Luau::CodeGen::IrOp", align 4
  %16 = alloca %"struct.Luau::CodeGen::IrOp", align 4
  %17 = alloca %"struct.Luau::CodeGen::IrOp", align 4
  %18 = alloca %"struct.Luau::CodeGen::IrOp", align 4
  %19 = alloca %"struct.Luau::CodeGen::IrOp", align 4
  %20 = alloca %"struct.Luau::CodeGen::IrOp", align 4
  %21 = alloca %"struct.Luau::CodeGen::IrOp", align 4
  %22 = alloca %"struct.Luau::CodeGen::IrOp", align 4
  %23 = alloca %"struct.Luau::CodeGen::IrOp", align 4
  %24 = getelementptr inbounds nuw %"struct.Luau::CodeGen::IrOp", ptr %8, i32 0, i32 0
  store i32 %4, ptr %24, align 4
  store ptr %0, ptr %9, align 8, !tbaa !20
  store i32 %1, ptr %10, align 4, !tbaa !22
  store i32 %2, ptr %11, align 4, !tbaa !22
  store i32 %3, ptr %12, align 4, !tbaa !22
  store i32 %5, ptr %13, align 4, !tbaa !22
  %25 = load i32, ptr %10, align 4, !tbaa !22
  %26 = icmp slt i32 %25, 1
  br i1 %26, label %30, label %27

27:                                               ; preds = %6
  %28 = load i32, ptr %13, align 4, !tbaa !22
  %29 = icmp sgt i32 %28, 1
  br i1 %29, label %30, label %33

30:                                               ; preds = %27, %6
  %31 = getelementptr inbounds nuw %"struct.Luau::CodeGen::BuiltinImplResult", ptr %7, i32 0, i32 0
  store i32 0, ptr %31, align 4, !tbaa !24
  %32 = getelementptr inbounds nuw %"struct.Luau::CodeGen::BuiltinImplResult", ptr %7, i32 0, i32 1
  store i32 -1, ptr %32, align 4, !tbaa !27
  br label %78

33:                                               ; preds = %27
  call void @llvm.lifetime.start.p0(i64 4, ptr %14) #11
  %34 = load ptr, ptr %9, align 8, !tbaa !20
  %35 = load ptr, ptr %9, align 8, !tbaa !20
  %36 = load i32, ptr %12, align 4, !tbaa !22
  %37 = trunc i32 %36 to i8
  %38 = call i32 @_ZN4Luau7CodeGen9IrBuilder5vmRegEh(ptr noundef nonnull align 8 dereferenceable(752) %35, i8 noundef zeroext %37)
  %39 = getelementptr inbounds nuw %"struct.Luau::CodeGen::IrOp", ptr %15, i32 0, i32 0
  store i32 %38, ptr %39, align 4
  %40 = getelementptr inbounds nuw %"struct.Luau::CodeGen::IrOp", ptr %15, i32 0, i32 0
  %41 = load i32, ptr %40, align 4
  %42 = call i32 @_ZN4Luau7CodeGen9IrBuilder4instENS0_5IrCmdENS0_4IrOpE(ptr noundef nonnull align 8 dereferenceable(752) %34, i8 noundef zeroext 1, i32 %41)
  %43 = getelementptr inbounds nuw %"struct.Luau::CodeGen::IrOp", ptr %14, i32 0, i32 0
  store i32 %42, ptr %43, align 4
  call void @llvm.lifetime.start.p0(i64 4, ptr %16) #11
  %44 = load ptr, ptr %9, align 8, !tbaa !20
  call void @llvm.memcpy.p0.p0.i64(ptr align 4 %17, ptr align 4 %14, i64 4, i1 false), !tbaa.struct !28
  %45 = getelementptr inbounds nuw %"struct.Luau::CodeGen::IrOp", ptr %17, i32 0, i32 0
  %46 = load i32, ptr %45, align 4
  %47 = call i32 @_ZN4Luau7CodeGen9IrBuilder4instENS0_5IrCmdENS0_4IrOpE(ptr noundef nonnull align 8 dereferenceable(752) %44, i8 noundef zeroext -124, i32 %46)
  %48 = getelementptr inbounds nuw %"struct.Luau::CodeGen::IrOp", ptr %16, i32 0, i32 0
  store i32 %47, ptr %48, align 4
  %49 = load ptr, ptr %9, align 8, !tbaa !20
  %50 = load ptr, ptr %9, align 8, !tbaa !20
  %51 = load i32, ptr %11, align 4, !tbaa !22
  %52 = trunc i32 %51 to i8
  %53 = call i32 @_ZN4Luau7CodeGen9IrBuilder5vmRegEh(ptr noundef nonnull align 8 dereferenceable(752) %50, i8 noundef zeroext %52)
  %54 = getelementptr inbounds nuw %"struct.Luau::CodeGen::IrOp", ptr %18, i32 0, i32 0
  store i32 %53, ptr %54, align 4
  call void @llvm.memcpy.p0.p0.i64(ptr align 4 %19, ptr align 4 %16, i64 4, i1 false), !tbaa.struct !28
  %55 = getelementptr inbounds nuw %"struct.Luau::CodeGen::IrOp", ptr %18, i32 0, i32 0
  %56 = load i32, ptr %55, align 4
  %57 = getelementptr inbounds nuw %"struct.Luau::CodeGen::IrOp", ptr %19, i32 0, i32 0
  %58 = load i32, ptr %57, align 4
  %59 = call i32 @_ZN4Luau7CodeGen9IrBuilder4instENS0_5IrCmdENS0_4IrOpES3_(ptr noundef nonnull align 8 dereferenceable(752) %49, i8 noundef zeroext 14, i32 %56, i32 %58)
  %60 = getelementptr inbounds nuw %"struct.Luau::CodeGen::IrOp", ptr %20, i32 0, i32 0
  store i32 %59, ptr %60, align 4
  %61 = load ptr, ptr %9, align 8, !tbaa !20
  %62 = load ptr, ptr %9, align 8, !tbaa !20
  %63 = load i32, ptr %11, align 4, !tbaa !22
  %64 = trunc i32 %63 to i8
  %65 = call i32 @_ZN4Luau7CodeGen9IrBuilder5vmRegEh(ptr noundef nonnull align 8 dereferenceable(752) %62, i8 noundef zeroext %64)
  %66 = getelementptr inbounds nuw %"struct.Luau::CodeGen::IrOp", ptr %21, i32 0, i32 0
  store i32 %65, ptr %66, align 4
  %67 = load ptr, ptr %9, align 8, !tbaa !20
  %68 = call i32 @_ZN4Luau7CodeGen9IrBuilder8constTagEh(ptr noundef nonnull align 8 dereferenceable(752) %67, i8 noundef zeroext 5)
  %69 = getelementptr inbounds nuw %"struct.Luau::CodeGen::IrOp", ptr %22, i32 0, i32 0
  store i32 %68, ptr %69, align 4
  %70 = getelementptr inbounds nuw %"struct.Luau::CodeGen::IrOp", ptr %21, i32 0, i32 0
  %71 = load i32, ptr %70, align 4
  %72 = getelementptr inbounds nuw %"struct.Luau::CodeGen::IrOp", ptr %22, i32 0, i32 0
  %73 = load i32, ptr %72, align 4
  %74 = call i32 @_ZN4Luau7CodeGen9IrBuilder4instENS0_5IrCmdENS0_4IrOpES3_(ptr noundef nonnull align 8 dereferenceable(752) %61, i8 noundef zeroext 12, i32 %71, i32 %73)
  %75 = getelementptr inbounds nuw %"struct.Luau::CodeGen::IrOp", ptr %23, i32 0, i32 0
  store i32 %74, ptr %75, align 4
  %76 = getelementptr inbounds nuw %"struct.Luau::CodeGen::BuiltinImplResult", ptr %7, i32 0, i32 0
  store i32 2, ptr %76, align 4, !tbaa !24
  %77 = getelementptr inbounds nuw %"struct.Luau::CodeGen::BuiltinImplResult", ptr %7, i32 0, i32 1
  store i32 1, ptr %77, align 4, !tbaa !27
  call void @llvm.lifetime.end.p0(i64 4, ptr %16) #11
  call void @llvm.lifetime.end.p0(i64 4, ptr %14) #11
  br label %78

78:                                               ; preds = %33, %30
  %79 = load i64, ptr %7, align 4
  ret i64 %79
}