; Function Attrs: mustprogress uwtable
define internal fastcc range(i64 -4294967296, 4294967299) i64 @_ZN4Luau7CodeGenL20translateBuiltinTypeERNS0_9IrBuilderEiiiNS0_4IrOpEi(ptr noundef nonnull align 8 dereferenceable(752) %0, i32 noundef range(i32 0, -1) %1, i32 noundef %2, i32 noundef %3, i32 noundef %4) unnamed_addr #0 {
  %6 = icmp slt i32 %1, 1
  %7 = icmp sgt i32 %4, 1
  %or.cond = or i1 %6, %7
  br i1 %or.cond, label %19, label %8

8:                                                ; preds = %5
  %9 = trunc i32 %3 to i8
  %10 = tail call i32 @_ZN4Luau7CodeGen9IrBuilder5vmRegEh(ptr noundef nonnull align 8 dereferenceable(752) %0, i8 noundef zeroext %9)
  %11 = tail call i32 @_ZN4Luau7CodeGen9IrBuilder4instENS0_5IrCmdENS0_4IrOpE(ptr noundef nonnull align 8 dereferenceable(752) %0, i8 noundef zeroext 1, i32 %10)
  %12 = tail call i32 @_ZN4Luau7CodeGen9IrBuilder4instENS0_5IrCmdENS0_4IrOpE(ptr noundef nonnull align 8 dereferenceable(752) %0, i8 noundef zeroext -124, i32 %11)
  %13 = trunc i32 %2 to i8
  %14 = tail call i32 @_ZN4Luau7CodeGen9IrBuilder5vmRegEh(ptr noundef nonnull align 8 dereferenceable(752) %0, i8 noundef zeroext %13)
  %15 = tail call i32 @_ZN4Luau7CodeGen9IrBuilder4instENS0_5IrCmdENS0_4IrOpES3_(ptr noundef nonnull align 8 dereferenceable(752) %0, i8 noundef zeroext 14, i32 %14, i32 %12)
  %16 = tail call i32 @_ZN4Luau7CodeGen9IrBuilder5vmRegEh(ptr noundef nonnull align 8 dereferenceable(752) %0, i8 noundef zeroext %13)
  %17 = tail call i32 @_ZN4Luau7CodeGen9IrBuilder8constTagEh(ptr noundef nonnull align 8 dereferenceable(752) %0, i8 noundef zeroext 5)
  %18 = tail call i32 @_ZN4Luau7CodeGen9IrBuilder4instENS0_5IrCmdENS0_4IrOpES3_(ptr noundef nonnull align 8 dereferenceable(752) %0, i8 noundef zeroext 12, i32 %16, i32 %17)
  br label %19

19:                                               ; preds = %5, %8
  %.sroa.023.0.insert.insert = phi i64 [ 4294967298, %8 ], [ -4294967296, %5 ]
  ret i64 %.sroa.023.0.insert.insert
}